target datalayout = "e-m:e-p270:32:32-p271:32:32-p272:64:64-i64:64-i128:128-f80:128-n8:16:32:64-S128"
target triple = "x86_64-unknown-linux-gnu"

%"class.icu_75::UObject" = type { ptr }
%"class.icu_75::FilteredNormalizer2" = type { %"class.icu_75::Normalizer2", ptr, ptr }
%"class.icu_75::Normalizer2" = type { %"class.icu_75::UObject" }

; Function Attrs: mustprogress uwtable
define noundef i32 @_ZNK6icu_7519FilteredNormalizer211composePairEii(ptr noundef nonnull align 8 dereferenceable(24) %this, i32 noundef %a, i32 noundef %b) unnamed_addr #2 align 2 {
entry:
  %this.addr = alloca ptr, align 8
  %a.addr = alloca i32, align 4
  %b.addr = alloca i32, align 4
  store ptr %this, ptr %this.addr, align 8
  store i32 %a, ptr %a.addr, align 4
  store i32 %b, ptr %b.addr, align 4
  %this1 = load ptr, ptr %this.addr, align 8
  %set = getelementptr inbounds %"class.icu_75::FilteredNormalizer2", ptr %this1, i32 0, i32 2
  %0 = load ptr, ptr %set, align 8
  %1 = load i32, ptr %a.addr, align 4
  %call = call noundef signext i8 @_ZNK6icu_7510UnicodeSet8containsEi(ptr noundef nonnull align 8 dereferenceable(200) %0, i32 noundef %1)
  %tobool = icmp ne i8 %call, 0
  br i1 %tobool, label %land.lhs.true, label %cond.false

land.lhs.true:                                    ; preds = %entry
  %set2 = getelementptr inbounds %"class.icu_75::FilteredNormalizer2", ptr %this1, i32 0, i32 2
  %2 = load ptr, ptr %set2, align 8
  %3 = load i32, ptr %b.addr, align 4
  %call3 = call noundef signext i8 @_ZNK6icu_7510UnicodeSet8containsEi(ptr noundef nonnull align 8 dereferenceable(200) %2, i32 noundef %3)
  %tobool4 = icmp ne i8 %call3, 0
  br i1 %tobool4, label %cond.true, label %cond.false

cond.true:                                        ; preds = %land.lhs.true
  %norm2 = getelementptr inbounds %"class.icu_75::FilteredNormalizer2", ptr %this1, i32 0, i32 1
  %4 = load ptr, ptr %norm2, align 8
  %5 = load i32, ptr %a.addr, align 4
  %6 = load i32, ptr %b.addr, align 4
  %vtable = load ptr, ptr %4, align 8
  %vfn = getelementptr inbounds ptr, ptr %vtable, i64 9
  %7 = load ptr, ptr %vfn, align 8
  %call5 = call noundef i32 %7(ptr noundef nonnull align 8 dereferenceable(8) %4, i32 noundef %5, i32 noundef %6)
  br label %cond.end

cond.false:                                       ; preds = %land.lhs.true, %entry
  br label %cond.end

cond.end:                                         ; preds = %cond.false, %cond.true
  %cond = phi i32 [ %call5, %cond.true ], [ -1, %cond.false ]
  ret i32 %cond
}