; Function Attrs: mustprogress uwtable
define noundef i32 @_ZNK6icu_7519FilteredNormalizer211composePairEii(ptr nocapture noundef nonnull readonly align 8 dereferenceable(24) %this, i32 noundef %a, i32 noundef %b) unnamed_addr #2 align 2 {
entry:
  %set = getelementptr inbounds i8, ptr %this, i64 16
  %0 = load ptr, ptr %set, align 8
  %call = tail call noundef signext i8 @_ZNK6icu_7510UnicodeSet8containsEi(ptr noundef nonnull align 8 dereferenceable(200) %0, i32 noundef %a)
  %tobool.not = icmp eq i8 %call, 0
  br i1 %tobool.not, label %cond.end, label %land.lhs.true

land.lhs.true:                                    ; preds = %entry
  %1 = load ptr, ptr %set, align 8
  %call3 = tail call noundef signext i8 @_ZNK6icu_7510UnicodeSet8containsEi(ptr noundef nonnull align 8 dereferenceable(200) %1, i32 noundef %b)
  %tobool4.not = icmp eq i8 %call3, 0
  br i1 %tobool4.not, label %cond.end, label %cond.true

cond.true:                                        ; preds = %land.lhs.true
  %norm2 = getelementptr inbounds i8, ptr %this, i64 8
  %2 = load ptr, ptr %norm2, align 8
  %vtable = load ptr, ptr %2, align 8
  %vfn = getelementptr inbounds i8, ptr %vtable, i64 72
  %3 = load ptr, ptr %vfn, align 8
  %call5 = tail call noundef i32 %3(ptr noundef nonnull align 8 dereferenceable(8) %2, i32 noundef %a, i32 noundef %b)
  br label %cond.end

cond.end:                                         ; preds = %entry, %land.lhs.true, %cond.true
  %cond = phi i32 [ %call5, %cond.true ], [ -1, %land.lhs.true ], [ -1, %entry ]
  ret i32 %cond
}